; Function Attrs: mustprogress nofree norecurse nosync nounwind willreturn memory(none) uwtable
define dso_local { i64, i64 } @i128_ashr64(i64 %0, i64 %1, i64 noundef %2) local_unnamed_addr #1 {
  %4 = icmp eq i64 %2, 0
  br i1 %4, label %i128_lshr64.exit, label %5

5:                                                ; preds = %3
  %.not = icmp sgt i64 %0, -1
  %6 = icmp ugt i64 %2, 127
  br i1 %.not, label %7, label %21

7:                                                ; preds = %5
  br i1 %6, label %i128_lshr64.exit, label %8

8:                                                ; preds = %7
  %9 = icmp eq i64 %2, 64
  br i1 %9, label %i128_lshr64.exit, label %10

10:                                               ; preds = %8
  %11 = icmp samesign ugt i64 %2, 64
  br i1 %11, label %12, label %15

12:                                               ; preds = %10
  %13 = add nsw i64 %2, -64
  %14 = lshr i64 %0, %13
  br label %i128_lshr64.exit

15:                                               ; preds = %10
  %16 = lshr i64 %1, %2
  %17 = sub nuw nsw i64 64, %2
  %18 = shl i64 %0, %17
  %19 = or disjoint i64 %18, %16
  %20 = lshr i64 %0, %2
  br label %i128_lshr64.exit

21:                                               ; preds = %5
  br i1 %6, label %i128_lshr64.exit, label %22

22:                                               ; preds = %21
  %23 = icmp eq i64 %2, 64
  br i1 %23, label %i128_lshr64.exit, label %24

24:                                               ; preds = %22
  %25 = icmp samesign ugt i64 %2, 64
  br i1 %25, label %26, label %29

26:                                               ; preds = %24
  %27 = add nsw i64 %2, -64
  %28 = ashr i64 %0, %27
  br label %i128_lshr64.exit

29:                                               ; preds = %24
  %30 = ashr i64 %0, %2
  %31 = lshr i64 %1, %2
  %32 = sub nuw nsw i64 64, %2
  %33 = shl i64 %0, %32
  %34 = or disjoint i64 %33, %31
  br label %i128_lshr64.exit

i128_lshr64.exit:                                 ; preds = %15, %12, %8, %7, %22, %21, %3, %29, %26
  %.sroa.015.0 = phi i64 [ -1, %26 ], [ %30, %29 ], [ %0, %3 ], [ -1, %21 ], [ -1, %22 ], [ 0, %12 ], [ %20, %15 ], [ 0, %7 ], [ 0, %8 ]
  %.sroa.7.0 = phi i64 [ %28, %26 ], [ %34, %29 ], [ %1, %3 ], [ -1, %21 ], [ %0, %22 ], [ %14, %12 ], [ %19, %15 ], [ 0, %7 ], [ %0, %8 ]
  %.fca.0.insert = insertvalue { i64, i64 } poison, i64 %.sroa.015.0, 0
  %.fca.1.insert = insertvalue { i64, i64 } %.fca.0.insert, i64 %.sroa.7.0, 1
  ret { i64, i64 } %.fca.1.insert
}